target datalayout = "e-m:e-p270:32:32-p271:32:32-p272:64:64-i64:64-i128:128-f80:128-n8:16:32:64-S128"
target triple = "x86_64-pc-linux-gnu"

%class.Metadata = type { ptr }
%class.AccessFlags = type { i32 }
%class.compiledVFrame = type <{ %class.javaVFrame, ptr, i32, [4 x i8] }>
%class.javaVFrame = type { %class.vframe }
%class.vframe = type { ptr, %class.frame, %class.RegisterMap, ptr, %class.stackChunkHandle }
%class.frame = type { %union.anon, ptr, ptr, ptr, i32, i8, %union.anon.0, %union.anon.1 }
%union.anon = type { ptr }
%union.anon.0 = type { ptr }
%union.anon.1 = type { ptr }
%class.RegisterMap = type <{ [609 x ptr], [10 x i64], i8, [7 x i8], ptr, %class.stackChunkHandle, i32, i8, i8, i8, i8 }>
%class.stackChunkHandle = type { %class.Handle }
%class.Handle = type { ptr }
%class.nmethod = type <{ %class.CodeBlob.base, [2 x i8], i64, i64, ptr, %union.anon.8, ptr, ptr, ptr, ptr, ptr, ptr, ptr, i16, i16, i32, i32, i32, i32, i32, i32, i32, i16, i16, i16, i16, i16, i16, i32, i32, i32, i32, i32, i8, i8, i8, i8, i8, i8, [2 x i8] }>
%class.CodeBlob.base = type <{ ptr, ptr, ptr, i32, i32, i32, i32, i32, i32, i16, i16, i8, i8 }>
%union.anon.8 = type { ptr }
%class.Method = type { %class.Metadata, ptr, ptr, ptr, ptr, %class.AccessFlags, i32, %class.MethodFlags, i16, %class.JfrTraceFlag, ptr, ptr, ptr, ptr }
%class.MethodFlags = type { i32 }
%class.JfrTraceFlag = type { i16 }

; Function Attrs: mustprogress nounwind uwtable
define linkonce_odr hidden noundef zeroext i1 @_ZNK11AccessFlags9is_nativeEv(ptr noundef nonnull align 4 dereferenceable(4) %0) #1 comdat align 2 {
  %2 = alloca ptr, align 8
  store ptr %0, ptr %2, align 8
  %3 = load ptr, ptr %2, align 8
  %4 = getelementptr inbounds %class.AccessFlags, ptr %3, i32 0, i32 0
  %5 = load i32, ptr %4, align 4
  %6 = and i32 %5, 256
  %7 = icmp ne i32 %6, 0
  ret i1 %7
}

; Function Attrs: mustprogress nounwind uwtable
define linkonce_odr hidden i32 @_ZNK6Method12access_flagsEv(ptr noundef nonnull align 8 dereferenceable(88) %0) #1 comdat align 2 {
  %2 = alloca %class.AccessFlags, align 4
  %3 = alloca ptr, align 8
  store ptr %0, ptr %3, align 8
  %4 = load ptr, ptr %3, align 8
  %5 = getelementptr inbounds %class.Method, ptr %4, i32 0, i32 5
  call void @llvm.memcpy.p0.p0.i64(ptr align 4 %2, ptr align 8 %5, i64 4, i1 false)
  %6 = getelementptr inbounds %class.AccessFlags, ptr %2, i32 0, i32 0
  %7 = load i32, ptr %6, align 4
  ret i32 %7
}

; Function Attrs: mustprogress nounwind uwtable
define linkonce_odr hidden noundef zeroext i1 @_ZNK6Method9is_nativeEv(ptr noundef nonnull align 8 dereferenceable(88) %0) #1 comdat align 2 {
  %2 = alloca ptr, align 8
  %3 = alloca %class.AccessFlags, align 4
  store ptr %0, ptr %2, align 8
  %4 = load ptr, ptr %2, align 8
  %5 = call i32 @_ZNK6Method12access_flagsEv(ptr noundef nonnull align 8 dereferenceable(88) %4)
  %6 = getelementptr inbounds %class.AccessFlags, ptr %3, i32 0, i32 0
  store i32 %5, ptr %6, align 4
  %7 = call noundef zeroext i1 @_ZNK11AccessFlags9is_nativeEv(ptr noundef nonnull align 4 dereferenceable(4) %3)
  ret i1 %7
}

; Function Attrs: mustprogress nounwind uwtable
define linkonce_odr hidden noundef ptr @_ZNK5frame2pcEv(ptr noundef nonnull align 8 dereferenceable(56) %0) #1 comdat align 2 {
  %2 = alloca ptr, align 8
  store ptr %0, ptr %2, align 8
  %3 = load ptr, ptr %2, align 8
  %4 = getelementptr inbounds %class.frame, ptr %3, i32 0, i32 1
  %5 = load ptr, ptr %4, align 8
  ret ptr %5
}

; Function Attrs: mustprogress nounwind uwtable
define linkonce_odr hidden noundef zeroext i1 @_ZNK7nmethod16is_native_methodEv(ptr noundef nonnull align 8 dereferenceable(214) %0) #1 comdat align 2 {
  %2 = alloca ptr, align 8
  store ptr %0, ptr %2, align 8
  %3 = load ptr, ptr %2, align 8
  %4 = getelementptr inbounds %class.nmethod, ptr %3, i32 0, i32 4
  %5 = load ptr, ptr %4, align 8
  %6 = icmp ne ptr %5, null
  br i1 %6, label %7, label %11

7:                                                ; preds = %1
  %8 = getelementptr inbounds %class.nmethod, ptr %3, i32 0, i32 4
  %9 = load ptr, ptr %8, align 8
  %10 = call noundef zeroext i1 @_ZNK6Method9is_nativeEv(ptr noundef nonnull align 8 dereferenceable(88) %9)
  br label %11

11:                                               ; preds = %7, %1
  %12 = phi i1 [ false, %1 ], [ %10, %7 ]
  ret i1 %12
}

; Function Attrs: mustprogress nounwind uwtable
define linkonce_odr hidden void @_ZN10javaVFrameC2EPK5framePK11RegisterMapP10JavaThread(ptr noundef nonnull align 8 dereferenceable(5064) %0, ptr noundef %1, ptr noundef %2, ptr noundef %3) unnamed_addr #1 comdat align 2 {
  %5 = alloca ptr, align 8
  %6 = alloca ptr, align 8
  %7 = alloca ptr, align 8
  %8 = alloca ptr, align 8
  store ptr %0, ptr %5, align 8
  store ptr %1, ptr %6, align 8
  store ptr %2, ptr %7, align 8
  store ptr %3, ptr %8, align 8
  %9 = load ptr, ptr %5, align 8
  %10 = load ptr, ptr %6, align 8
  %11 = load ptr, ptr %7, align 8
  %12 = load ptr, ptr %8, align 8
  call void @_ZN6vframeC2EPK5framePK11RegisterMapP10JavaThread(ptr noundef nonnull align 8 dereferenceable(5064) %9, ptr noundef %10, ptr noundef %11, ptr noundef %12)
  store ptr getelementptr inbounds inrange(-16, 96) ({ [14 x ptr] }, ptr @_ZTV10javaVFrame, i32 0, i32 0, i32 2), ptr %9, align 8
  ret void
}

; Function Attrs: mustprogress nounwind uwtable
define hidden void @_ZN14compiledVFrameC2EPK5framePK11RegisterMapP10JavaThreadP7nmethod(ptr noundef nonnull align 8 dereferenceable(5076) %0, ptr noundef %1, ptr noundef %2, ptr noundef %3, ptr noundef %4) unnamed_addr #1 align 2 {
  %6 = alloca ptr, align 8
  %7 = alloca ptr, align 8
  %8 = alloca ptr, align 8
  %9 = alloca ptr, align 8
  %10 = alloca ptr, align 8
  store ptr %0, ptr %6, align 8
  store ptr %1, ptr %7, align 8
  store ptr %2, ptr %8, align 8
  store ptr %3, ptr %9, align 8
  store ptr %4, ptr %10, align 8
  %11 = load ptr, ptr %6, align 8
  %12 = load ptr, ptr %7, align 8
  %13 = load ptr, ptr %8, align 8
  %14 = load ptr, ptr %9, align 8
  call void @_ZN10javaVFrameC2EPK5framePK11RegisterMapP10JavaThread(ptr noundef nonnull align 8 dereferenceable(5064) %11, ptr noundef %12, ptr noundef %13, ptr noundef %14)
  store ptr getelementptr inbounds inrange(-16, 96) ({ [14 x ptr] }, ptr @_ZTV14compiledVFrame, i32 0, i32 0, i32 2), ptr %11, align 8
  %15 = getelementptr inbounds %class.compiledVFrame, ptr %11, i32 0, i32 1
  store ptr null, ptr %15, align 8
  %16 = getelementptr inbounds %class.compiledVFrame, ptr %11, i32 0, i32 2
  store i32 0, ptr %16, align 8
  %17 = load ptr, ptr %10, align 8
  %18 = call noundef zeroext i1 @_ZNK7nmethod16is_native_methodEv(ptr noundef nonnull align 8 dereferenceable(214) %17)
  br i1 %18, label %25, label %19

19:                                               ; preds = %5
  %20 = load ptr, ptr %10, align 8
  %21 = getelementptr inbounds %class.vframe, ptr %11, i32 0, i32 1
  %22 = call noundef ptr @_ZNK5frame2pcEv(ptr noundef nonnull align 8 dereferenceable(56) %21)
  %23 = call noundef ptr @_ZN7nmethod13scope_desc_atEPh(ptr noundef nonnull align 8 dereferenceable(214) %20, ptr noundef %22)
  %24 = getelementptr inbounds %class.compiledVFrame, ptr %11, i32 0, i32 1
  store ptr %23, ptr %24, align 8
  br label %25

25:                                               ; preds = %19, %5
  ret void
}