; Function Attrs: mustprogress nounwind uwtable
define hidden void @_ZN14compiledVFrameC2EPK5framePK11RegisterMapP10JavaThreadP7nmethod(ptr noundef nonnull align 8 dereferenceable(5076) %0, ptr noundef %1, ptr noundef %2, ptr noundef %3, ptr noundef %4) unnamed_addr #0 align 2 {
  tail call void @_ZN6vframeC2EPK5framePK11RegisterMapP10JavaThread(ptr noundef nonnull align 8 dereferenceable(5064) %0, ptr noundef %1, ptr noundef %2, ptr noundef %3) #11
  store ptr getelementptr inbounds inrange(-16, 96) (i8, ptr @_ZTV14compiledVFrame, i64 16), ptr %0, align 8
  %6 = getelementptr inbounds i8, ptr %0, i64 5064
  store ptr null, ptr %6, align 8
  %7 = getelementptr inbounds i8, ptr %0, i64 5072
  store i32 0, ptr %7, align 8
  %8 = getelementptr inbounds i8, ptr %4, i64 72
  %9 = load ptr, ptr %8, align 8
  %.not.i = icmp eq ptr %9, null
  br i1 %.not.i, label %_ZNK7nmethod16is_native_methodEv.exit.thread, label %_ZNK7nmethod16is_native_methodEv.exit

_ZNK7nmethod16is_native_methodEv.exit:            ; preds = %5
  %10 = getelementptr inbounds i8, ptr %9, i64 40
  %.sroa.0.0.copyload.i.i.i = load i32, ptr %10, align 8
  %11 = and i32 %.sroa.0.0.copyload.i.i.i, 256
  %.not = icmp eq i32 %11, 0
  br i1 %.not, label %_ZNK7nmethod16is_native_methodEv.exit.thread, label %15

_ZNK7nmethod16is_native_methodEv.exit.thread:     ; preds = %5, %_ZNK7nmethod16is_native_methodEv.exit
  %12 = getelementptr inbounds i8, ptr %0, i64 16
  %13 = load ptr, ptr %12, align 8
  %14 = tail call noundef ptr @_ZN7nmethod13scope_desc_atEPh(ptr noundef nonnull align 8 dereferenceable(214) %4, ptr noundef %13) #11
  store ptr %14, ptr %6, align 8
  br label %15

15:                                               ; preds = %_ZNK7nmethod16is_native_methodEv.exit.thread, %_ZNK7nmethod16is_native_methodEv.exit
  ret void
}